; Function Attrs: mustprogress nofree norecurse nosync nounwind willreturn memory(readwrite, inaccessiblemem: none) uwtable
define hidden void @_ZN9Assembler6pmaxsdE11XMMRegisterS0_(ptr noundef nonnull align 8 dereferenceable(40) %0, i32 %1, i32 %2) local_unnamed_addr #8 align 2 {
  %4 = alloca %class.InstructionAttr, align 8
  store i8 0, ptr %4, align 8
  %5 = getelementptr inbounds i8, ptr %4, i64 1
  %6 = load i32, ptr @UseAVX, align 4
  %7 = icmp slt i32 %6, 3
  %8 = zext i1 %7 to i8
  store i8 %8, ptr %5, align 1
  %9 = getelementptr inbounds i8, ptr %4, i64 2
  store <4 x i8> <i8 1, i8 1, i8 0, i8 0>, ptr %9, align 2
  %10 = getelementptr inbounds i8, ptr %4, i64 6
  store i8 1, ptr %10, align 2
  %11 = getelementptr inbounds i8, ptr %4, i64 7
  store i8 0, ptr %11, align 1
  %12 = getelementptr inbounds i8, ptr %4, i64 8
  store <4 x i32> <i32 0, i32 24, i32 4, i32 0>, ptr %12, align 8
  %13 = getelementptr inbounds i8, ptr %4, i64 24
  store i32 0, ptr %13, align 8
  %14 = getelementptr inbounds i8, ptr %4, i64 32
  store ptr null, ptr %14, align 8
  %15 = sext i32 %1 to i64
  %16 = getelementptr inbounds %"class.XMMRegister::XMMRegisterImpl", ptr getelementptr inbounds (i8, ptr @all_XMMRegisterImpls, i64 1), i64 %15
  %17 = ptrtoint ptr %16 to i64
  %18 = trunc i64 %17 to i32
  %19 = sub i32 %18, ptrtoint (ptr getelementptr inbounds (i8, ptr @all_XMMRegisterImpls, i64 1) to i32)
  %20 = sext i32 %2 to i64
  %21 = getelementptr inbounds %"class.XMMRegister::XMMRegisterImpl", ptr getelementptr inbounds (i8, ptr @all_XMMRegisterImpls, i64 1), i64 %20
  %22 = ptrtoint ptr %21 to i64
  %23 = trunc i64 %22 to i32
  %24 = sub i32 %23, ptrtoint (ptr getelementptr inbounds (i8, ptr @all_XMMRegisterImpls, i64 1) to i32)
  %25 = icmp sgt i32 %6, 0
  br i1 %25, label %26, label %29

26:                                               ; preds = %3
  %27 = icmp ult i32 %19, 32
  %spec.select.i = select i1 %27, i32 %19, i32 0
  %28 = call noundef i32 @_ZN9Assembler21vex_prefix_and_encodeEiiiNS_13VexSimdPrefixENS_9VexOpcodeEP15InstructionAttrb(ptr noundef nonnull align 8 dereferenceable(40) %0, i32 noundef %19, i32 noundef %spec.select.i, i32 noundef %24, i32 noundef 1, i32 noundef 2, ptr noundef nonnull %4, i1 noundef zeroext false)
  br label %_ZN9Assembler22simd_prefix_and_encodeE11XMMRegisterS0_S0_NS_13VexSimdPrefixENS_9VexOpcodeEP15InstructionAttrb.exit

29:                                               ; preds = %3
  %30 = tail call noundef i32 @_ZN9Assembler21rex_prefix_and_encodeEiiNS_13VexSimdPrefixENS_9VexOpcodeEb(ptr noundef nonnull align 8 dereferenceable(40) %0, i32 noundef %19, i32 noundef %24, i32 noundef 1, i32 noundef 2, i1 noundef zeroext false)
  br label %_ZN9Assembler22simd_prefix_and_encodeE11XMMRegisterS0_S0_NS_13VexSimdPrefixENS_9VexOpcodeEP15InstructionAttrb.exit

_ZN9Assembler22simd_prefix_and_encodeE11XMMRegisterS0_S0_NS_13VexSimdPrefixENS_9VexOpcodeEP15InstructionAttrb.exit: ; preds = %26, %29
  %.0.i = phi i32 [ %28, %26 ], [ %30, %29 ]
  %31 = getelementptr inbounds i8, ptr %0, i64 8
  %32 = load ptr, ptr %31, align 8
  %33 = trunc i32 %.0.i to i8
  %.0.i2.i = or i8 %33, -64
  %34 = getelementptr inbounds i8, ptr %32, i64 16
  %35 = load ptr, ptr %34, align 8
  %36 = getelementptr inbounds i8, ptr %35, i64 1
  store i8 61, ptr %35, align 1
  %37 = getelementptr inbounds i8, ptr %35, i64 2
  store i8 %.0.i2.i, ptr %36, align 1
  store ptr %37, ptr %34, align 8
  %38 = load ptr, ptr %14, align 8
  %.not.i = icmp eq ptr %38, null
  br i1 %.not.i, label %_ZN15InstructionAttrD2Ev.exit, label %39

39:                                               ; preds = %_ZN9Assembler22simd_prefix_and_encodeE11XMMRegisterS0_S0_NS_13VexSimdPrefixENS_9VexOpcodeEP15InstructionAttrb.exit
  %40 = getelementptr inbounds i8, ptr %38, i64 32
  store ptr null, ptr %40, align 8
  br label %_ZN15InstructionAttrD2Ev.exit

_ZN15InstructionAttrD2Ev.exit:                    ; preds = %_ZN9Assembler22simd_prefix_and_encodeE11XMMRegisterS0_S0_NS_13VexSimdPrefixENS_9VexOpcodeEP15InstructionAttrb.exit, %39
  ret void
}